target datalayout = "e-m:e-p270:32:32-p271:32:32-p272:64:64-i64:64-i128:128-f80:128-n8:16:32:64-S128"
target triple = "x86_64-pc-linux-gnu"

%struct.re_pattern_buffer = type { ptr, ptr, ptr, i32, i32, ptr, ptr, i32, i32, i32, i32, i32, i32, i32, i32, i32, ptr, ptr, i32, ptr, i32, ptr, i32, i32, i32, i32, i32, i32, ptr, ptr, [256 x i8], i32, i32, i32, ptr }

; Function Attrs: nounwind uwtable
define dso_local i32 @onig_renumber_name_table(ptr noundef %0, ptr noundef %1) #0 {
  %3 = alloca ptr, align 8
  %4 = alloca ptr, align 8
  %5 = alloca ptr, align 8
  store ptr %0, ptr %3, align 8, !tbaa !33
  store ptr %1, ptr %4, align 8, !tbaa !9
  call void @llvm.lifetime.start.p0(i64 8, ptr %5) #8
  %6 = load ptr, ptr %3, align 8, !tbaa !33
  %7 = getelementptr inbounds nuw %struct.re_pattern_buffer, ptr %6, i32 0, i32 21
  %8 = load ptr, ptr %7, align 8, !tbaa !35
  store ptr %8, ptr %5, align 8, !tbaa !37
  %9 = load ptr, ptr %5, align 8, !tbaa !37
  %10 = icmp ne ptr %9, null
  br i1 %10, label %11, label %16

11:                                               ; preds = %2
  %12 = load ptr, ptr %5, align 8, !tbaa !37
  %13 = load ptr, ptr %4, align 8, !tbaa !9
  %14 = ptrtoint ptr %13 to i64
  %15 = call i32 @onig_st_foreach(ptr noundef %12, ptr noundef @i_renumber_name, i64 noundef %14)
  br label %16

16:                                               ; preds = %11, %2
  call void @llvm.lifetime.end.p0(i64 8, ptr %5) #8
  ret i32 0
}